target datalayout = "e-m:e-p270:32:32-p271:32:32-p272:64:64-i64:64-i128:128-f80:128-n8:16:32:64-S128"
target triple = "x86_64-pc-linux-gnu"

%struct.lbtrm_tag_entry_t = type { ptr, ptr, i32, ptr, i32, i32, i32, i32, i32, i32, i32, ptr, i32, ptr, i32 }

; Function Attrs: null_pointer_is_valid sspstrong uwtable
define internal void @lbtrm_tag_mim_mc_outgoing_address_set_cb(ptr noundef %0, ptr noundef %1, i32 noundef %2, ptr noundef %3, ptr noundef %4) #0 {
  %6 = alloca ptr, align 8
  %7 = alloca ptr, align 8
  %8 = alloca i32, align 4
  %9 = alloca ptr, align 8
  %10 = alloca ptr, align 8
  %11 = alloca i32, align 4
  %12 = alloca ptr, align 8
  %13 = alloca i32, align 4
  %14 = alloca i32, align 4
  %15 = alloca i32, align 4
  store ptr %0, ptr %6, align 8
  store ptr %1, ptr %7, align 8
  store i32 %2, ptr %8, align 4
  store ptr %3, ptr %9, align 8
  store ptr %4, ptr %10, align 8
  call void @llvm.lifetime.start.p0(i64 4, ptr %11) #9
  call void @llvm.lifetime.start.p0(i64 8, ptr %12) #9
  %16 = load ptr, ptr %7, align 8
  %17 = load i32, ptr %8, align 4
  %18 = zext i32 %17 to i64
  %19 = call noalias ptr @g_strndup(ptr noundef %16, i64 noundef %18)
  store ptr %19, ptr %12, align 8
  %20 = load ptr, ptr %6, align 8
  %21 = getelementptr inbounds nuw %struct.lbtrm_tag_entry_t, ptr %20, i32 0, i32 13
  %22 = load ptr, ptr %21, align 8
  call void @g_free(ptr noundef %22)
  %23 = load ptr, ptr %12, align 8
  %24 = load ptr, ptr %6, align 8
  %25 = getelementptr inbounds nuw %struct.lbtrm_tag_entry_t, ptr %24, i32 0, i32 13
  store ptr %23, ptr %25, align 8
  %26 = load ptr, ptr %12, align 8
  %27 = call zeroext i1 @ws_inet_pton4(ptr noundef %26, ptr noundef %11)
  call void @llvm.lifetime.start.p0(i64 4, ptr %13) #9
  call void @llvm.lifetime.start.p0(i64 4, ptr %14) #9
  %28 = load i32, ptr %11, align 4
  store i32 %28, ptr %14, align 4
  %29 = load i32, ptr %14, align 4
  %30 = call i1 @llvm.is.constant.i32(i32 %29)
  br i1 %30, label %31, label %47

31:                                               ; preds = %5
  %32 = load i32, ptr %14, align 4
  %33 = and i32 %32, 255
  %34 = shl i32 %33, 24
  %35 = load i32, ptr %14, align 4
  %36 = and i32 %35, 65280
  %37 = shl i32 %36, 8
  %38 = or i32 %34, %37
  %39 = load i32, ptr %14, align 4
  %40 = and i32 %39, 16711680
  %41 = lshr i32 %40, 8
  %42 = or i32 %38, %41
  %43 = load i32, ptr %14, align 4
  %44 = and i32 %43, -16777216
  %45 = lshr i32 %44, 24
  %46 = or i32 %42, %45
  store i32 %46, ptr %13, align 4
  br label %50

47:                                               ; preds = %5
  %48 = load i32, ptr %14, align 4
  %49 = call i32 asm "bswapl $0", "=r,0,~{dirflag},~{fpsr},~{flags}"(i32 %48) #11, !srcloc !32
  store i32 %49, ptr %13, align 4
  br label %50

50:                                               ; preds = %47, %31
  %51 = load i32, ptr %13, align 4
  store i32 %51, ptr %15, align 4
  call void @llvm.lifetime.end.p0(i64 4, ptr %14) #9
  call void @llvm.lifetime.end.p0(i64 4, ptr %13) #9
  %52 = load i32, ptr %15, align 4
  %53 = load ptr, ptr %6, align 8
  %54 = getelementptr inbounds nuw %struct.lbtrm_tag_entry_t, ptr %53, i32 0, i32 14
  store i32 %52, ptr %54, align 8
  call void @llvm.lifetime.end.p0(i64 8, ptr %12) #9
  call void @llvm.lifetime.end.p0(i64 4, ptr %11) #9
  ret void
}